target datalayout = "e-m:e-p270:32:32-p271:32:32-p272:64:64-i64:64-i128:128-f80:128-n8:16:32:64-S128"
target triple = "x86_64-pc-linux-gnu"

%"class.google::protobuf::internal::GeneratedExtensionFinder" = type { %"class.google::protobuf::internal::ExtensionFinder", ptr }
%"class.google::protobuf::internal::ExtensionFinder" = type { ptr }
%"class.google::protobuf::internal::FieldSkipper" = type { ptr }
%"class.google::protobuf::internal::CodedOutputStreamFieldSkipper" = type { %"class.google::protobuf::internal::FieldSkipper", ptr }
%"class.google::protobuf::io::StringOutputStream" = type { %"class.google::protobuf::io::ZeroCopyOutputStream", ptr }
%"class.google::protobuf::io::ZeroCopyOutputStream" = type { ptr }
%"class.google::protobuf::io::CodedOutputStream" = type { %"class.google::protobuf::io::EpsCopyOutputStream", ptr, i64 }
%"class.google::protobuf::io::EpsCopyOutputStream" = type <{ ptr, ptr, [32 x i8], ptr, i8, i8, i8, [5 x i8] }>

@_ZTVN6google8protobuf8internal12FieldSkipperE = external unnamed_addr constant { [7 x ptr] }, align 8
@_ZTVN6google8protobuf8internal29CodedOutputStreamFieldSkipperE = external unnamed_addr constant { [7 x ptr] }, align 8

; Function Attrs: inlinehint mustprogress nounwind uwtable
define linkonce_odr hidden void @_ZN6google8protobuf8internal15ExtensionFinderC2Ev(ptr noundef nonnull align 8 dereferenceable(8) %0) unnamed_addr #14 comdat align 2 {
  %2 = alloca ptr, align 8
  store ptr %0, ptr %2, align 8, !tbaa !3
  %3 = load ptr, ptr %2, align 8
  store ptr getelementptr inbounds inrange(-16, 24) ({ [5 x ptr] }, ptr @_ZTVN6google8protobuf8internal15ExtensionFinderE, i32 0, i32 0, i32 2), ptr %3, align 8, !tbaa !37
  ret void
}

; Function Attrs: mustprogress nounwind uwtable
define linkonce_odr hidden void @_ZN6google8protobuf8internal12FieldSkipperC2Ev(ptr noundef nonnull align 8 dereferenceable(8) %0) unnamed_addr #4 comdat align 2 {
  %2 = alloca ptr, align 8
  store ptr %0, ptr %2, align 8, !tbaa !406
  %3 = load ptr, ptr %2, align 8
  store ptr getelementptr inbounds inrange(-16, 40) ({ [7 x ptr] }, ptr @_ZTVN6google8protobuf8internal12FieldSkipperE, i32 0, i32 0, i32 2), ptr %3, align 8, !tbaa !37
  ret void
}

; Function Attrs: mustprogress nounwind uwtable
define linkonce_odr hidden void @_ZN6google8protobuf2io20ZeroCopyOutputStreamD2Ev(ptr noundef nonnull align 8 dereferenceable(8) %0) unnamed_addr #4 comdat align 2 {
  %2 = alloca ptr, align 8
  store ptr %0, ptr %2, align 8, !tbaa !455
  ret void
}

; Function Attrs: mustprogress nounwind uwtable
define linkonce_odr hidden void @_ZN6google8protobuf8internal12FieldSkipperD2Ev(ptr noundef nonnull align 8 dereferenceable(8) %0) unnamed_addr #4 comdat align 2 {
  %2 = alloca ptr, align 8
  store ptr %0, ptr %2, align 8, !tbaa !406
  ret void
}

; Function Attrs: mustprogress nounwind uwtable
define hidden void @_ZN6google8protobuf8internal15ExtensionFinderD2Ev(ptr noundef nonnull align 8 dereferenceable(8) %0) unnamed_addr #4 align 2 {
  %2 = alloca ptr, align 8
  store ptr %0, ptr %2, align 8, !tbaa !3
  ret void
}

; Function Attrs: mustprogress nounwind uwtable
define linkonce_odr hidden void @_ZN6google8protobuf8internal24GeneratedExtensionFinderC2EPKNS0_11MessageLiteE(ptr noundef nonnull align 8 dereferenceable(16) %0, ptr noundef %1) unnamed_addr #4 comdat align 2 {
  %3 = alloca ptr, align 8
  %4 = alloca ptr, align 8
  store ptr %0, ptr %3, align 8, !tbaa !8
  store ptr %1, ptr %4, align 8, !tbaa !19
  %5 = load ptr, ptr %3, align 8
  call void @_ZN6google8protobuf8internal15ExtensionFinderC2Ev(ptr noundef nonnull align 8 dereferenceable(8) %5) #3
  store ptr getelementptr inbounds inrange(-16, 24) ({ [5 x ptr] }, ptr @_ZTVN6google8protobuf8internal24GeneratedExtensionFinderE, i32 0, i32 0, i32 2), ptr %5, align 8, !tbaa !37
  %6 = getelementptr inbounds nuw %"class.google::protobuf::internal::GeneratedExtensionFinder", ptr %5, i32 0, i32 1
  %7 = load ptr, ptr %4, align 8, !tbaa !19
  store ptr %7, ptr %6, align 8, !tbaa !14
  ret void
}

; Function Attrs: mustprogress nounwind uwtable
define linkonce_odr hidden void @_ZN6google8protobuf8internal29CodedOutputStreamFieldSkipperC2EPNS0_2io17CodedOutputStreamE(ptr noundef nonnull align 8 dereferenceable(16) %0, ptr noundef %1) unnamed_addr #4 comdat align 2 {
  %3 = alloca ptr, align 8
  %4 = alloca ptr, align 8
  store ptr %0, ptr %3, align 8, !tbaa !443
  store ptr %1, ptr %4, align 8, !tbaa !441
  %5 = load ptr, ptr %3, align 8
  call void @_ZN6google8protobuf8internal12FieldSkipperC2Ev(ptr noundef nonnull align 8 dereferenceable(8) %5)
  store ptr getelementptr inbounds inrange(-16, 40) ({ [7 x ptr] }, ptr @_ZTVN6google8protobuf8internal29CodedOutputStreamFieldSkipperE, i32 0, i32 0, i32 2), ptr %5, align 8, !tbaa !37
  %6 = getelementptr inbounds nuw %"class.google::protobuf::internal::CodedOutputStreamFieldSkipper", ptr %5, i32 0, i32 1
  %7 = load ptr, ptr %4, align 8, !tbaa !441
  store ptr %7, ptr %6, align 8, !tbaa !445
  ret void
}

; Function Attrs: mustprogress uwtable
define linkonce_odr hidden void @_ZN6google8protobuf2io17CodedOutputStreamC2EPNS1_20ZeroCopyOutputStreamE(ptr noundef nonnull align 8 dereferenceable(80) %0, ptr noundef %1) unnamed_addr #6 comdat align 2 {
  %3 = alloca ptr, align 8
  %4 = alloca ptr, align 8
  store ptr %0, ptr %3, align 8, !tbaa !441
  store ptr %1, ptr %4, align 8, !tbaa !455
  %5 = load ptr, ptr %3, align 8
  %6 = load ptr, ptr %4, align 8, !tbaa !455
  call void @_ZN6google8protobuf2io17CodedOutputStreamC2EPNS1_20ZeroCopyOutputStreamEb(ptr noundef nonnull align 8 dereferenceable(80) %5, ptr noundef %6, i1 noundef zeroext true)
  ret void
}

; Function Attrs: mustprogress uwtable
define hidden noundef zeroext i1 @_ZN6google8protobuf8internal12ExtensionSet15ParseMessageSetEPNS0_2io16CodedInputStreamEPKNS0_11MessageLiteEPNSt7__cxx1112basic_stringIcSt11char_traitsIcESaIcEEE(ptr noundef nonnull align 8 dereferenceable(24) %0, ptr noundef %1, ptr noundef %2, ptr noundef %3) #6 align 2 personality ptr @__gxx_personality_v0 {
  %5 = alloca ptr, align 8
  %6 = alloca ptr, align 8
  %7 = alloca ptr, align 8
  %8 = alloca ptr, align 8
  %9 = alloca %"class.google::protobuf::io::StringOutputStream", align 8
  %10 = alloca %"class.google::protobuf::io::CodedOutputStream", align 8
  %11 = alloca ptr, align 8
  %12 = alloca i32, align 4
  %13 = alloca %"class.google::protobuf::internal::CodedOutputStreamFieldSkipper", align 8
  %14 = alloca %"class.google::protobuf::internal::GeneratedExtensionFinder", align 8
  store ptr %0, ptr %5, align 8, !tbaa !43
  store ptr %1, ptr %6, align 8, !tbaa !404
  store ptr %2, ptr %7, align 8, !tbaa !19
  store ptr %3, ptr %8, align 8, !tbaa !292
  %15 = load ptr, ptr %5, align 8
  call void @llvm.lifetime.start.p0(i64 16, ptr %9) #3
  %16 = load ptr, ptr %8, align 8, !tbaa !292
  call void @_ZN6google8protobuf2io18StringOutputStreamC1EPNSt7__cxx1112basic_stringIcSt11char_traitsIcESaIcEEE(ptr noundef nonnull align 8 dereferenceable(16) %9, ptr noundef %16)
  call void @llvm.lifetime.start.p0(i64 80, ptr %10) #3
  invoke void @_ZN6google8protobuf2io17CodedOutputStreamC2EPNS1_20ZeroCopyOutputStreamE(ptr noundef nonnull align 8 dereferenceable(80) %10, ptr noundef %9)
          to label %17 unwind label %24

17:                                               ; preds = %4
  call void @llvm.lifetime.start.p0(i64 16, ptr %13) #3
  invoke void @_ZN6google8protobuf8internal29CodedOutputStreamFieldSkipperC2EPNS0_2io17CodedOutputStreamE(ptr noundef nonnull align 8 dereferenceable(16) %13, ptr noundef %10)
          to label %18 unwind label %28

18:                                               ; preds = %17
  call void @llvm.lifetime.start.p0(i64 16, ptr %14) #3
  %19 = load ptr, ptr %7, align 8, !tbaa !19
  invoke void @_ZN6google8protobuf8internal24GeneratedExtensionFinderC2EPKNS0_11MessageLiteE(ptr noundef nonnull align 8 dereferenceable(16) %14, ptr noundef %19)
          to label %20 unwind label %32

20:                                               ; preds = %18
  %21 = load ptr, ptr %6, align 8, !tbaa !404
  %22 = invoke noundef zeroext i1 @_ZN6google8protobuf8internal12ExtensionSet19ParseMessageSetLiteEPNS0_2io16CodedInputStreamEPNS1_15ExtensionFinderEPNS1_12FieldSkipperE(ptr noundef nonnull align 8 dereferenceable(24) %15, ptr noundef %21, ptr noundef %14, ptr noundef %13)
          to label %23 unwind label %36

23:                                               ; preds = %20
  call void @_ZN6google8protobuf8internal15ExtensionFinderD2Ev(ptr noundef nonnull align 8 dereferenceable(16) %14) #3
  call void @llvm.lifetime.end.p0(i64 16, ptr %14) #3
  call void @_ZN6google8protobuf8internal12FieldSkipperD2Ev(ptr noundef nonnull align 8 dereferenceable(16) %13) #3
  call void @llvm.lifetime.end.p0(i64 16, ptr %13) #3
  call void @_ZN6google8protobuf2io17CodedOutputStreamD1Ev(ptr noundef nonnull align 8 dereferenceable(80) %10) #3
  call void @llvm.lifetime.end.p0(i64 80, ptr %10) #3
  call void @_ZN6google8protobuf2io20ZeroCopyOutputStreamD2Ev(ptr noundef nonnull align 8 dereferenceable(16) %9) #3
  call void @llvm.lifetime.end.p0(i64 16, ptr %9) #3
  ret i1 %22

24:                                               ; preds = %4
  %25 = landingpad { ptr, i32 }
          cleanup
  %26 = extractvalue { ptr, i32 } %25, 0
  store ptr %26, ptr %11, align 8
  %27 = extractvalue { ptr, i32 } %25, 1
  store i32 %27, ptr %12, align 4
  br label %42

28:                                               ; preds = %17
  %29 = landingpad { ptr, i32 }
          cleanup
  %30 = extractvalue { ptr, i32 } %29, 0
  store ptr %30, ptr %11, align 8
  %31 = extractvalue { ptr, i32 } %29, 1
  store i32 %31, ptr %12, align 4
  br label %41

32:                                               ; preds = %18
  %33 = landingpad { ptr, i32 }
          cleanup
  %34 = extractvalue { ptr, i32 } %33, 0
  store ptr %34, ptr %11, align 8
  %35 = extractvalue { ptr, i32 } %33, 1
  store i32 %35, ptr %12, align 4
  br label %40

36:                                               ; preds = %20
  %37 = landingpad { ptr, i32 }
          cleanup
  %38 = extractvalue { ptr, i32 } %37, 0
  store ptr %38, ptr %11, align 8
  %39 = extractvalue { ptr, i32 } %37, 1
  store i32 %39, ptr %12, align 4
  call void @_ZN6google8protobuf8internal15ExtensionFinderD2Ev(ptr noundef nonnull align 8 dereferenceable(16) %14) #3
  br label %40

40:                                               ; preds = %36, %32
  call void @llvm.lifetime.end.p0(i64 16, ptr %14) #3
  call void @_ZN6google8protobuf8internal12FieldSkipperD2Ev(ptr noundef nonnull align 8 dereferenceable(16) %13) #3
  br label %41

41:                                               ; preds = %40, %28
  call void @llvm.lifetime.end.p0(i64 16, ptr %13) #3
  call void @_ZN6google8protobuf2io17CodedOutputStreamD1Ev(ptr noundef nonnull align 8 dereferenceable(80) %10) #3
  br label %42

42:                                               ; preds = %41, %24
  call void @llvm.lifetime.end.p0(i64 80, ptr %10) #3
  call void @_ZN6google8protobuf2io20ZeroCopyOutputStreamD2Ev(ptr noundef nonnull align 8 dereferenceable(16) %9) #3
  call void @llvm.lifetime.end.p0(i64 16, ptr %9) #3
  br label %43

43:                                               ; preds = %42
  %44 = load ptr, ptr %11, align 8
  %45 = load i32, ptr %12, align 4
  %46 = insertvalue { ptr, i32 } poison, ptr %44, 0
  %47 = insertvalue { ptr, i32 } %46, i32 %45, 1
  resume { ptr, i32 } %47
}